target datalayout = "e-m:e-p270:32:32-p271:32:32-p272:64:64-i64:64-i128:128-f80:128-n8:16:32:64-S128"
target triple = "x86_64-pc-linux-gnu"

%struct.wtap = type { ptr, ptr, i8, i32, i32, ptr, ptr, ptr, i32, ptr, ptr, ptr, ptr, ptr, ptr, ptr, ptr, ptr, ptr, i32, i32, ptr, ptr, ptr, ptr }

@.str = private unnamed_addr constant [26 x i8] c"[-]+ (beginning of \\/?.+)\00", align 1
@.str.1 = private unnamed_addr constant [34 x i8] c"([IVDWEF])/(.*?)\\( *(\\d+)\\): (.*)\00", align 1
@logcat_text_brief_file_type_subtype = internal global i32 -1, align 4
@.str.2 = private unnamed_addr constant [23 x i8] c"([IVDWEF])/(.*?): (.*)\00", align 1
@logcat_text_tag_file_type_subtype = internal global i32 -1, align 4
@.str.3 = private unnamed_addr constant [27 x i8] c"([IVDWEF])\\( *(\\d+)\\) (.*)\00", align 1
@logcat_text_process_file_type_subtype = internal global i32 -1, align 4
@.str.4 = private unnamed_addr constant [73 x i8] c"(\\d{2}-\\d{2} \\d{2}:\\d{2}:\\d{2}\\.\\d{3}) ([IVDWEF])/(.*?)\\( *(\\d+)\\): (.*)\00", align 1
@logcat_text_time_file_type_subtype = internal global i32 -1, align 4
@.str.5 = private unnamed_addr constant [35 x i8] c"([IVDWEF])\\( *(\\d+): *(\\d+)\\) (.*)\00", align 1
@logcat_text_thread_file_type_subtype = internal global i32 -1, align 4
@.str.6 = private unnamed_addr constant [76 x i8] c"(\\d{2}-\\d{2} \\d{2}:\\d{2}:\\d{2}\\.\\d{3}) +(\\d+) +(\\d+) ([IVDWEF]) (.*?): (.*)\00", align 1
@logcat_text_threadtime_file_type_subtype = internal global i32 -1, align 4
@.str.7 = private unnamed_addr constant [81 x i8] c"\\[ (\\d{2}-\\d{2} \\d{2}:\\d{2}:\\d{2}\\.\\d{3}) +(\\d+): *(\\d+) ([IVDWEF])/(.+) ]\\R(.*)\00", align 1
@logcat_text_long_file_type_subtype = internal global i32 -1, align 4

; Function Attrs: null_pointer_is_valid sspstrong uwtable
define hidden i32 @logcat_text_open(ptr noundef %0, ptr noundef %1, ptr noundef %2) #0 {
  %4 = alloca i32, align 4
  %5 = alloca ptr, align 8
  %6 = alloca ptr, align 8
  %7 = alloca ptr, align 8
  %8 = alloca ptr, align 8
  %9 = alloca ptr, align 8
  %10 = alloca i32, align 4
  store ptr %0, ptr %5, align 8
  store ptr %1, ptr %6, align 8
  store ptr %2, ptr %7, align 8
  call void @llvm.lifetime.start.p0(i64 8, ptr %8) #12
  call void @llvm.lifetime.start.p0(i64 8, ptr %9) #12
  store ptr null, ptr %9, align 8
  %11 = load ptr, ptr %5, align 8
  %12 = getelementptr inbounds nuw %struct.wtap, ptr %11, i32 0, i32 0
  %13 = load ptr, ptr %12, align 8
  %14 = load ptr, ptr %6, align 8
  %15 = call i64 @file_seek(ptr noundef %13, i64 noundef 0, i32 noundef 0, ptr noundef %14)
  %16 = icmp eq i64 %15, -1
  br i1 %16, label %17, label %18

17:                                               ; preds = %3
  store i32 -1, ptr %4, align 4
  store i32 1, ptr %10, align 4
  br label %144

18:                                               ; preds = %3
  %19 = call noalias ptr @g_malloc(i64 noundef 262144) #13
  store ptr %19, ptr %8, align 8
  br label %20

20:                                               ; preds = %45, %18
  %21 = load ptr, ptr %8, align 8
  %22 = load ptr, ptr %5, align 8
  %23 = getelementptr inbounds nuw %struct.wtap, ptr %22, i32 0, i32 0
  %24 = load ptr, ptr %23, align 8
  %25 = call ptr @file_gets(ptr noundef %21, i32 noundef 262144, ptr noundef %24)
  store ptr %25, ptr %9, align 8
  br label %26

26:                                               ; preds = %20
  %27 = load ptr, ptr %9, align 8
  %28 = icmp ne ptr null, %27
  br i1 %28, label %29, label %45

29:                                               ; preds = %26
  %30 = load ptr, ptr %5, align 8
  %31 = getelementptr inbounds nuw %struct.wtap, ptr %30, i32 0, i32 0
  %32 = load ptr, ptr %31, align 8
  %33 = call i32 @file_eof(ptr noundef %32)
  %34 = icmp ne i32 %33, 0
  br i1 %34, label %45, label %35

35:                                               ; preds = %29
  %36 = load ptr, ptr %8, align 8
  %37 = call i64 @strlen(ptr noundef %36) #14
  %38 = icmp ugt i64 3, %37
  br i1 %38, label %43, label %39

39:                                               ; preds = %35
  %40 = load ptr, ptr %8, align 8
  %41 = call i32 @g_regex_match_simple(ptr noundef @.str, ptr noundef %40, i32 noundef 2064, i32 noundef 1024)
  %42 = icmp ne i32 %41, 0
  br label %43

43:                                               ; preds = %39, %35
  %44 = phi i1 [ true, %35 ], [ %42, %39 ]
  br label %45

45:                                               ; preds = %43, %29, %26
  %46 = phi i1 [ false, %29 ], [ false, %26 ], [ %44, %43 ]
  br i1 %46, label %20, label %47, !llvm.loop !6

47:                                               ; preds = %45
  %48 = load ptr, ptr %8, align 8
  %49 = call i32 @g_regex_match_simple(ptr noundef @.str.1, ptr noundef %48, i32 noundef 2064, i32 noundef 1024)
  %50 = icmp ne i32 %49, 0
  br i1 %50, label %51, label %57

51:                                               ; preds = %47
  %52 = load i32, ptr @logcat_text_brief_file_type_subtype, align 4
  %53 = load ptr, ptr %5, align 8
  %54 = getelementptr inbounds nuw %struct.wtap, ptr %53, i32 0, i32 3
  store i32 %52, ptr %54, align 4
  %55 = load ptr, ptr %5, align 8
  %56 = getelementptr inbounds nuw %struct.wtap, ptr %55, i32 0, i32 19
  store i32 164, ptr %56, align 8
  br label %125

57:                                               ; preds = %47
  %58 = load ptr, ptr %8, align 8
  %59 = call i32 @g_regex_match_simple(ptr noundef @.str.2, ptr noundef %58, i32 noundef 2064, i32 noundef 1024)
  %60 = icmp ne i32 %59, 0
  br i1 %60, label %61, label %67

61:                                               ; preds = %57
  %62 = load i32, ptr @logcat_text_tag_file_type_subtype, align 4
  %63 = load ptr, ptr %5, align 8
  %64 = getelementptr inbounds nuw %struct.wtap, ptr %63, i32 0, i32 3
  store i32 %62, ptr %64, align 4
  %65 = load ptr, ptr %5, align 8
  %66 = getelementptr inbounds nuw %struct.wtap, ptr %65, i32 0, i32 19
  store i32 166, ptr %66, align 8
  br label %124

67:                                               ; preds = %57
  %68 = load ptr, ptr %8, align 8
  %69 = call i32 @g_regex_match_simple(ptr noundef @.str.3, ptr noundef %68, i32 noundef 2064, i32 noundef 1024)
  %70 = icmp ne i32 %69, 0
  br i1 %70, label %71, label %77

71:                                               ; preds = %67
  %72 = load i32, ptr @logcat_text_process_file_type_subtype, align 4
  %73 = load ptr, ptr %5, align 8
  %74 = getelementptr inbounds nuw %struct.wtap, ptr %73, i32 0, i32 3
  store i32 %72, ptr %74, align 4
  %75 = load ptr, ptr %5, align 8
  %76 = getelementptr inbounds nuw %struct.wtap, ptr %75, i32 0, i32 19
  store i32 165, ptr %76, align 8
  br label %123

77:                                               ; preds = %67
  %78 = load ptr, ptr %8, align 8
  %79 = call i32 @g_regex_match_simple(ptr noundef @.str.4, ptr noundef %78, i32 noundef 2064, i32 noundef 1024)
  %80 = icmp ne i32 %79, 0
  br i1 %80, label %81, label %87

81:                                               ; preds = %77
  %82 = load i32, ptr @logcat_text_time_file_type_subtype, align 4
  %83 = load ptr, ptr %5, align 8
  %84 = getelementptr inbounds nuw %struct.wtap, ptr %83, i32 0, i32 3
  store i32 %82, ptr %84, align 4
  %85 = load ptr, ptr %5, align 8
  %86 = getelementptr inbounds nuw %struct.wtap, ptr %85, i32 0, i32 19
  store i32 168, ptr %86, align 8
  br label %122

87:                                               ; preds = %77
  %88 = load ptr, ptr %8, align 8
  %89 = call i32 @g_regex_match_simple(ptr noundef @.str.5, ptr noundef %88, i32 noundef 2064, i32 noundef 1024)
  %90 = icmp ne i32 %89, 0
  br i1 %90, label %91, label %97

91:                                               ; preds = %87
  %92 = load i32, ptr @logcat_text_thread_file_type_subtype, align 4
  %93 = load ptr, ptr %5, align 8
  %94 = getelementptr inbounds nuw %struct.wtap, ptr %93, i32 0, i32 3
  store i32 %92, ptr %94, align 4
  %95 = load ptr, ptr %5, align 8
  %96 = getelementptr inbounds nuw %struct.wtap, ptr %95, i32 0, i32 19
  store i32 167, ptr %96, align 8
  br label %121

97:                                               ; preds = %87
  %98 = load ptr, ptr %8, align 8
  %99 = call i32 @g_regex_match_simple(ptr noundef @.str.6, ptr noundef %98, i32 noundef 2064, i32 noundef 1024)
  %100 = icmp ne i32 %99, 0
  br i1 %100, label %101, label %107

101:                                              ; preds = %97
  %102 = load i32, ptr @logcat_text_threadtime_file_type_subtype, align 4
  %103 = load ptr, ptr %5, align 8
  %104 = getelementptr inbounds nuw %struct.wtap, ptr %103, i32 0, i32 3
  store i32 %102, ptr %104, align 4
  %105 = load ptr, ptr %5, align 8
  %106 = getelementptr inbounds nuw %struct.wtap, ptr %105, i32 0, i32 19
  store i32 169, ptr %106, align 8
  br label %120

107:                                              ; preds = %97
  %108 = load ptr, ptr %8, align 8
  %109 = call i32 @g_regex_match_simple(ptr noundef @.str.7, ptr noundef %108, i32 noundef 2064, i32 noundef 1024)
  %110 = icmp ne i32 %109, 0
  br i1 %110, label %111, label %117

111:                                              ; preds = %107
  %112 = load i32, ptr @logcat_text_long_file_type_subtype, align 4
  %113 = load ptr, ptr %5, align 8
  %114 = getelementptr inbounds nuw %struct.wtap, ptr %113, i32 0, i32 3
  store i32 %112, ptr %114, align 4
  %115 = load ptr, ptr %5, align 8
  %116 = getelementptr inbounds nuw %struct.wtap, ptr %115, i32 0, i32 19
  store i32 170, ptr %116, align 8
  br label %119

117:                                              ; preds = %107
  %118 = load ptr, ptr %8, align 8
  call void @g_free(ptr noundef %118)
  store i32 0, ptr %4, align 4
  store i32 1, ptr %10, align 4
  br label %144

119:                                              ; preds = %111
  br label %120

120:                                              ; preds = %119, %101
  br label %121

121:                                              ; preds = %120, %91
  br label %122

122:                                              ; preds = %121, %81
  br label %123

123:                                              ; preds = %122, %71
  br label %124

124:                                              ; preds = %123, %61
  br label %125

125:                                              ; preds = %124, %51
  %126 = load ptr, ptr %5, align 8
  %127 = getelementptr inbounds nuw %struct.wtap, ptr %126, i32 0, i32 0
  %128 = load ptr, ptr %127, align 8
  %129 = load ptr, ptr %6, align 8
  %130 = call i64 @file_seek(ptr noundef %128, i64 noundef 0, i32 noundef 0, ptr noundef %129)
  %131 = icmp eq i64 %130, -1
  br i1 %131, label %132, label %134

132:                                              ; preds = %125
  %133 = load ptr, ptr %8, align 8
  call void @g_free(ptr noundef %133)
  store i32 -1, ptr %4, align 4
  store i32 1, ptr %10, align 4
  br label %144

134:                                              ; preds = %125
  %135 = load ptr, ptr %5, align 8
  %136 = getelementptr inbounds nuw %struct.wtap, ptr %135, i32 0, i32 4
  store i32 0, ptr %136, align 8
  %137 = load ptr, ptr %5, align 8
  %138 = getelementptr inbounds nuw %struct.wtap, ptr %137, i32 0, i32 15
  store ptr @logcat_text_read, ptr %138, align 8
  %139 = load ptr, ptr %5, align 8
  %140 = getelementptr inbounds nuw %struct.wtap, ptr %139, i32 0, i32 16
  store ptr @logcat_text_seek_read, ptr %140, align 8
  %141 = load ptr, ptr %5, align 8
  %142 = getelementptr inbounds nuw %struct.wtap, ptr %141, i32 0, i32 20
  store i32 6, ptr %142, align 4
  %143 = load ptr, ptr %8, align 8
  call void @g_free(ptr noundef %143)
  store i32 1, ptr %4, align 4
  store i32 1, ptr %10, align 4
  br label %144

144:                                              ; preds = %134, %132, %117, %17
  call void @llvm.lifetime.end.p0(i64 8, ptr %9) #12
  call void @llvm.lifetime.end.p0(i64 8, ptr %8) #12
  %145 = load i32, ptr %4, align 4
  ret i32 %145
}