; Function Attrs: null_pointer_is_valid sspstrong uwtable
define hidden range(i32 -1, 2) i32 @logcat_text_open(ptr noundef captures(none) %0, ptr noundef %1, ptr noundef readnone captures(none) %2) local_unnamed_addr #0 {
  %4 = load ptr, ptr %0, align 8
  %5 = tail call i64 @file_seek(ptr noundef %4, i64 noundef 0, i32 noundef 0, ptr noundef %1)
  %6 = icmp eq i64 %5, -1
  br i1 %6, label %45, label %7

7:                                                ; preds = %3
  %8 = tail call noalias dereferenceable_or_null(262144) ptr @g_malloc(i64 noundef 262144) #10
  %9 = load ptr, ptr %0, align 8
  %10 = tail call ptr @file_gets(ptr noundef %8, i32 noundef 262144, ptr noundef %9)
  %.not49 = icmp eq ptr %10, null
  br i1 %.not49, label %.critedge, label %.lr.ph

.lr.ph:                                           ; preds = %7, %.critedge2.backedge
  %11 = load ptr, ptr %0, align 8
  %12 = tail call i32 @file_eof(ptr noundef %11)
  %.not40 = icmp eq i32 %12, 0
  br i1 %.not40, label %13, label %.critedge

13:                                               ; preds = %.lr.ph
  %14 = tail call i64 @strlen(ptr noundef %8) #11
  %15 = icmp ult i64 %14, 3
  br i1 %15, label %.critedge2.backedge, label %16

16:                                               ; preds = %13
  %17 = tail call i32 @g_regex_match_simple(ptr noundef nonnull @.str, ptr noundef %8, i32 noundef 2064, i32 noundef 1024)
  %.not41 = icmp eq i32 %17, 0
  br i1 %.not41, label %.critedge, label %.critedge2.backedge

.critedge2.backedge:                              ; preds = %16, %13
  %18 = load ptr, ptr %0, align 8
  %19 = tail call ptr @file_gets(ptr noundef %8, i32 noundef 262144, ptr noundef %18)
  %.not = icmp eq ptr %19, null
  br i1 %.not, label %.critedge, label %.lr.ph, !llvm.loop !6

.critedge:                                        ; preds = %16, %.critedge2.backedge, %.lr.ph, %7
  %20 = tail call i32 @g_regex_match_simple(ptr noundef nonnull @.str.1, ptr noundef %8, i32 noundef 2064, i32 noundef 1024)
  %.not42 = icmp eq i32 %20, 0
  br i1 %.not42, label %21, label %33

21:                                               ; preds = %.critedge
  %22 = tail call i32 @g_regex_match_simple(ptr noundef nonnull @.str.2, ptr noundef %8, i32 noundef 2064, i32 noundef 1024)
  %.not43 = icmp eq i32 %22, 0
  br i1 %.not43, label %23, label %33

23:                                               ; preds = %21
  %24 = tail call i32 @g_regex_match_simple(ptr noundef nonnull @.str.3, ptr noundef %8, i32 noundef 2064, i32 noundef 1024)
  %.not44 = icmp eq i32 %24, 0
  br i1 %.not44, label %25, label %33

25:                                               ; preds = %23
  %26 = tail call i32 @g_regex_match_simple(ptr noundef nonnull @.str.4, ptr noundef %8, i32 noundef 2064, i32 noundef 1024)
  %.not45 = icmp eq i32 %26, 0
  br i1 %.not45, label %27, label %33

27:                                               ; preds = %25
  %28 = tail call i32 @g_regex_match_simple(ptr noundef nonnull @.str.5, ptr noundef %8, i32 noundef 2064, i32 noundef 1024)
  %.not46 = icmp eq i32 %28, 0
  br i1 %.not46, label %29, label %33

29:                                               ; preds = %27
  %30 = tail call i32 @g_regex_match_simple(ptr noundef nonnull @.str.6, ptr noundef %8, i32 noundef 2064, i32 noundef 1024)
  %.not47 = icmp eq i32 %30, 0
  br i1 %.not47, label %31, label %33

31:                                               ; preds = %29
  %32 = tail call i32 @g_regex_match_simple(ptr noundef nonnull @.str.7, ptr noundef %8, i32 noundef 2064, i32 noundef 1024)
  %.not48 = icmp eq i32 %32, 0
  br i1 %.not48, label %.sink.split, label %33

33:                                               ; preds = %31, %29, %27, %25, %23, %21, %.critedge
  %logcat_text_tag_file_type_subtype.sink = phi ptr [ @logcat_text_brief_file_type_subtype, %.critedge ], [ @logcat_text_tag_file_type_subtype, %21 ], [ @logcat_text_process_file_type_subtype, %23 ], [ @logcat_text_time_file_type_subtype, %25 ], [ @logcat_text_thread_file_type_subtype, %27 ], [ @logcat_text_threadtime_file_type_subtype, %29 ], [ @logcat_text_long_file_type_subtype, %31 ]
  %.sink = phi i32 [ 164, %.critedge ], [ 166, %21 ], [ 165, %23 ], [ 168, %25 ], [ 167, %27 ], [ 169, %29 ], [ 170, %31 ]
  %34 = load i32, ptr %logcat_text_tag_file_type_subtype.sink, align 4
  %35 = getelementptr inbounds nuw i8, ptr %0, i64 20
  store i32 %34, ptr %35, align 4
  %36 = getelementptr inbounds nuw i8, ptr %0, i64 144
  store i32 %.sink, ptr %36, align 8
  %37 = load ptr, ptr %0, align 8
  %38 = tail call i64 @file_seek(ptr noundef %37, i64 noundef 0, i32 noundef 0, ptr noundef %1)
  %39 = icmp eq i64 %38, -1
  br i1 %39, label %.sink.split, label %40

40:                                               ; preds = %33
  %41 = getelementptr inbounds nuw i8, ptr %0, i64 24
  store i32 0, ptr %41, align 8
  %42 = getelementptr inbounds nuw i8, ptr %0, i64 112
  store ptr @logcat_text_read, ptr %42, align 8
  %43 = getelementptr inbounds nuw i8, ptr %0, i64 120
  store ptr @logcat_text_seek_read, ptr %43, align 8
  %44 = getelementptr inbounds nuw i8, ptr %0, i64 148
  store i32 6, ptr %44, align 4
  br label %.sink.split

.sink.split:                                      ; preds = %33, %31, %40
  %.0.ph = phi i32 [ 1, %40 ], [ 0, %31 ], [ -1, %33 ]
  tail call void @g_free(ptr noundef %8)
  br label %45

45:                                               ; preds = %.sink.split, %3
  %.0 = phi i32 [ -1, %3 ], [ %.0.ph, %.sink.split ]
  ret i32 %.0
}